; Function Attrs: nounwind uwtable
define internal void @scdes(ptr noundef readonly captures(none) %0) #0 {
  %2 = getelementptr inbounds nuw i8, ptr %0, i64 248
  %3 = load ptr, ptr %2, align 8, !tbaa !89
  %.not = icmp eq ptr %3, null
  br i1 %.not, label %5, label %4

4:                                                ; preds = %1
  tail call void @free(ptr noundef nonnull %3) #13
  br label %5

5:                                                ; preds = %4, %1
  %6 = getelementptr inbounds nuw i8, ptr %0, i64 256
  %7 = load ptr, ptr %6, align 8, !tbaa !99
  %.not11 = icmp eq ptr %7, null
  br i1 %.not11, label %9, label %8

8:                                                ; preds = %5
  tail call void @free(ptr noundef nonnull %7) #13
  br label %9

9:                                                ; preds = %8, %5
  %10 = getelementptr inbounds nuw i8, ptr %0, i64 264
  %11 = load ptr, ptr %10, align 8, !tbaa !100
  %.not12 = icmp eq ptr %11, null
  br i1 %.not12, label %13, label %12

12:                                               ; preds = %9
  tail call void @PMIx_Argv_free(ptr noundef nonnull %11) #13
  br label %13

13:                                               ; preds = %12, %9
  %14 = getelementptr inbounds nuw i8, ptr %0, i64 272
  %15 = load ptr, ptr %14, align 8, !tbaa !101
  %.not13 = icmp eq ptr %15, null
  br i1 %.not13, label %17, label %16

16:                                               ; preds = %13
  tail call void @PMIx_Argv_free(ptr noundef nonnull %15) #13
  br label %17

17:                                               ; preds = %16, %13
  ret void
}